
.pio/build/uno/firmware.elf:     file format elf32-avr


Disassembly of section .text:

00000000 <__vectors>:
   0:	0c 94 34 00 	jmp	0x68	; 0x68 <__ctors_end>
   4:	0c 94 51 00 	jmp	0xa2	; 0xa2 <__bad_interrupt>
   8:	0c 94 51 00 	jmp	0xa2	; 0xa2 <__bad_interrupt>
   c:	0c 94 51 00 	jmp	0xa2	; 0xa2 <__bad_interrupt>
  10:	0c 94 51 00 	jmp	0xa2	; 0xa2 <__bad_interrupt>
  14:	0c 94 51 00 	jmp	0xa2	; 0xa2 <__bad_interrupt>
  18:	0c 94 51 00 	jmp	0xa2	; 0xa2 <__bad_interrupt>
  1c:	0c 94 51 00 	jmp	0xa2	; 0xa2 <__bad_interrupt>
  20:	0c 94 51 00 	jmp	0xa2	; 0xa2 <__bad_interrupt>
  24:	0c 94 51 00 	jmp	0xa2	; 0xa2 <__bad_interrupt>
  28:	0c 94 51 00 	jmp	0xa2	; 0xa2 <__bad_interrupt>
  2c:	0c 94 51 00 	jmp	0xa2	; 0xa2 <__bad_interrupt>
  30:	0c 94 51 00 	jmp	0xa2	; 0xa2 <__bad_interrupt>
  34:	0c 94 d3 00 	jmp	0x1a6	; 0x1a6 <__vector_13>
  38:	0c 94 51 00 	jmp	0xa2	; 0xa2 <__bad_interrupt>
  3c:	0c 94 51 00 	jmp	0xa2	; 0xa2 <__bad_interrupt>
  40:	0c 94 51 00 	jmp	0xa2	; 0xa2 <__bad_interrupt>
  44:	0c 94 51 00 	jmp	0xa2	; 0xa2 <__bad_interrupt>
  48:	0c 94 a5 00 	jmp	0x14a	; 0x14a <__vector_18>
  4c:	0c 94 7b 00 	jmp	0xf6	; 0xf6 <__vector_19>
  50:	0c 94 51 00 	jmp	0xa2	; 0xa2 <__bad_interrupt>
  54:	0c 94 51 00 	jmp	0xa2	; 0xa2 <__bad_interrupt>
  58:	0c 94 51 00 	jmp	0xa2	; 0xa2 <__bad_interrupt>
  5c:	0c 94 51 00 	jmp	0xa2	; 0xa2 <__bad_interrupt>
  60:	0c 94 51 00 	jmp	0xa2	; 0xa2 <__bad_interrupt>
  64:	0c 94 51 00 	jmp	0xa2	; 0xa2 <__bad_interrupt>

00000068 <__ctors_end>:
  68:	11 24       	eor	r1, r1
  6a:	1f be       	out	0x3f, r1	; 63
  6c:	cf ef       	ldi	r28, 0xFF	; 255
  6e:	d8 e0       	ldi	r29, 0x08	; 8
  70:	de bf       	out	0x3e, r29	; 62
  72:	cd bf       	out	0x3d, r28	; 61

00000074 <__do_copy_data>:
  74:	11 e0       	ldi	r17, 0x01	; 1
  76:	a0 e0       	ldi	r26, 0x00	; 0
  78:	b1 e0       	ldi	r27, 0x01	; 1
  7a:	e2 e3       	ldi	r30, 0x32	; 50
  7c:	f3 e0       	ldi	r31, 0x03	; 3
  7e:	02 c0       	rjmp	.+4      	; 0x84 <__do_copy_data+0x10>
  80:	05 90       	lpm	r0, Z+
  82:	0d 92       	st	X+, r0
  84:	ae 33       	cpi	r26, 0x3E	; 62
  86:	b1 07       	cpc	r27, r17
  88:	d9 f7       	brne	.-10     	; 0x80 <__do_copy_data+0xc>

0000008a <__do_clear_bss>:
  8a:	21 e0       	ldi	r18, 0x01	; 1
  8c:	ae e3       	ldi	r26, 0x3E	; 62
  8e:	b1 e0       	ldi	r27, 0x01	; 1
  90:	01 c0       	rjmp	.+2      	; 0x94 <.do_clear_bss_start>

00000092 <.do_clear_bss_loop>:
  92:	1d 92       	st	X+, r1

00000094 <.do_clear_bss_start>:
  94:	a5 3c       	cpi	r26, 0xC5	; 197
  96:	b2 07       	cpc	r27, r18
  98:	e1 f7       	brne	.-8      	; 0x92 <.do_clear_bss_loop>
  9a:	0e 94 3a 01 	call	0x274	; 0x274 <main>
  9e:	0c 94 97 01 	jmp	0x32e	; 0x32e <_exit>

000000a2 <__bad_interrupt>:
  a2:	0c 94 00 00 	jmp	0	; 0x0 <__vectors>

000000a6 <lfsr4_fibonacci_asm>:
  a6:	af 93       	push	r26
  a8:	bf 93       	push	r27
  aa:	83 fb       	bst	r24, 3
  ac:	a0 f9       	bld	r26, 0
  ae:	82 fb       	bst	r24, 2
  b0:	b0 f9       	bld	r27, 0
  b2:	ab 27       	eor	r26, r27
  b4:	a0 95       	com	r26
  b6:	a7 95       	ror	r26
  b8:	88 1f       	adc	r24, r24
  ba:	8f 70       	andi	r24, 0x0F	; 15
  bc:	bf 91       	pop	r27
  be:	af 91       	pop	r26
  c0:	08 95       	ret

000000c2 <uart_puts>:
  c2:	dc 01       	movw	r26, r24
  c4:	2d 91       	ld	r18, X+
  c6:	21 11       	cpse	r18, r1
  c8:	01 c0       	rjmp	.+2      	; 0xcc <uart_puts+0xa>
  ca:	08 95       	ret
  cc:	90 91 c4 01 	lds	r25, 0x01C4	; 0x8001c4 <UART_TxHead>
  d0:	9f 5f       	subi	r25, 0xFF	; 255
  d2:	9f 73       	andi	r25, 0x3F	; 63
  d4:	80 91 c3 01 	lds	r24, 0x01C3	; 0x8001c3 <UART_TxTail>
  d8:	98 17       	cp	r25, r24
  da:	e1 f3       	breq	.-8      	; 0xd4 <uart_puts+0x12>
  dc:	e9 2f       	mov	r30, r25
  de:	f0 e0       	ldi	r31, 0x00	; 0
  e0:	ed 57       	subi	r30, 0x7D	; 125
  e2:	fe 4f       	sbci	r31, 0xFE	; 254
  e4:	20 83       	st	Z, r18
  e6:	90 93 c4 01 	sts	0x01C4, r25	; 0x8001c4 <UART_TxHead>
  ea:	90 91 c1 00 	lds	r25, 0x00C1	; 0x8000c1 <__TEXT_REGION_LENGTH__+0x7e00c1>
  ee:	90 62       	ori	r25, 0x20	; 32
  f0:	90 93 c1 00 	sts	0x00C1, r25	; 0x8000c1 <__TEXT_REGION_LENGTH__+0x7e00c1>
  f4:	e7 cf       	rjmp	.-50     	; 0xc4 <uart_puts+0x2>

000000f6 <__vector_19>:
  f6:	1f 92       	push	r1
  f8:	0f 92       	push	r0
  fa:	0f b6       	in	r0, 0x3f	; 63
  fc:	0f 92       	push	r0
  fe:	11 24       	eor	r1, r1
 100:	8f 93       	push	r24
 102:	9f 93       	push	r25
 104:	ef 93       	push	r30
 106:	ff 93       	push	r31
 108:	90 91 c4 01 	lds	r25, 0x01C4	; 0x8001c4 <UART_TxHead>
 10c:	80 91 c3 01 	lds	r24, 0x01C3	; 0x8001c3 <UART_TxTail>
 110:	98 17       	cp	r25, r24
 112:	a9 f0       	breq	.+42     	; 0x13e <__vector_19+0x48>
 114:	e0 91 c3 01 	lds	r30, 0x01C3	; 0x8001c3 <UART_TxTail>
 118:	ef 5f       	subi	r30, 0xFF	; 255
 11a:	ef 73       	andi	r30, 0x3F	; 63
 11c:	e0 93 c3 01 	sts	0x01C3, r30	; 0x8001c3 <UART_TxTail>
 120:	f0 e0       	ldi	r31, 0x00	; 0
 122:	ed 57       	subi	r30, 0x7D	; 125
 124:	fe 4f       	sbci	r31, 0xFE	; 254
 126:	80 81       	ld	r24, Z
 128:	80 93 c6 00 	sts	0x00C6, r24	; 0x8000c6 <__TEXT_REGION_LENGTH__+0x7e00c6>
 12c:	ff 91       	pop	r31
 12e:	ef 91       	pop	r30
 130:	9f 91       	pop	r25
 132:	8f 91       	pop	r24
 134:	0f 90       	pop	r0
 136:	0f be       	out	0x3f, r0	; 63
 138:	0f 90       	pop	r0
 13a:	1f 90       	pop	r1
 13c:	18 95       	reti
 13e:	80 91 c1 00 	lds	r24, 0x00C1	; 0x8000c1 <__TEXT_REGION_LENGTH__+0x7e00c1>
 142:	8f 7d       	andi	r24, 0xDF	; 223
 144:	80 93 c1 00 	sts	0x00C1, r24	; 0x8000c1 <__TEXT_REGION_LENGTH__+0x7e00c1>
 148:	f1 cf       	rjmp	.-30     	; 0x12c <__vector_19+0x36>

0000014a <__vector_18>:
 14a:	1f 92       	push	r1
 14c:	0f 92       	push	r0
 14e:	0f b6       	in	r0, 0x3f	; 63
 150:	0f 92       	push	r0
 152:	11 24       	eor	r1, r1
 154:	2f 93       	push	r18
 156:	8f 93       	push	r24
 158:	9f 93       	push	r25
 15a:	ef 93       	push	r30
 15c:	ff 93       	push	r31
 15e:	80 91 c0 00 	lds	r24, 0x00C0	; 0x8000c0 <__TEXT_REGION_LENGTH__+0x7e00c0>
 162:	90 91 c6 00 	lds	r25, 0x00C6	; 0x8000c6 <__TEXT_REGION_LENGTH__+0x7e00c6>
 166:	e0 91 82 01 	lds	r30, 0x0182	; 0x800182 <UART_RxHead>
 16a:	ef 5f       	subi	r30, 0xFF	; 255
 16c:	ef 73       	andi	r30, 0x3F	; 63
 16e:	20 91 81 01 	lds	r18, 0x0181	; 0x800181 <UART_RxTail>
 172:	2e 17       	cp	r18, r30
 174:	b1 f0       	breq	.+44     	; 0x1a2 <__vector_18+0x58>
 176:	8c 71       	andi	r24, 0x1C	; 28
 178:	e0 93 82 01 	sts	0x0182, r30	; 0x800182 <UART_RxHead>
 17c:	f0 e0       	ldi	r31, 0x00	; 0
 17e:	ef 5b       	subi	r30, 0xBF	; 191
 180:	fe 4f       	sbci	r31, 0xFE	; 254
 182:	90 83       	st	Z, r25
 184:	90 91 40 01 	lds	r25, 0x0140	; 0x800140 <UART_LastRxError>
 188:	89 2b       	or	r24, r25
 18a:	80 93 40 01 	sts	0x0140, r24	; 0x800140 <UART_LastRxError>
 18e:	ff 91       	pop	r31
 190:	ef 91       	pop	r30
 192:	9f 91       	pop	r25
 194:	8f 91       	pop	r24
 196:	2f 91       	pop	r18
 198:	0f 90       	pop	r0
 19a:	0f be       	out	0x3f, r0	; 63
 19c:	0f 90       	pop	r0
 19e:	1f 90       	pop	r1
 1a0:	18 95       	reti
 1a2:	82 e0       	ldi	r24, 0x02	; 2
 1a4:	ef cf       	rjmp	.-34     	; 0x184 <__vector_18+0x3a>

000001a6 <__vector_13>:
 1a6:	1f 92       	push	r1
 1a8:	0f 92       	push	r0
 1aa:	0f b6       	in	r0, 0x3f	; 63
 1ac:	0f 92       	push	r0
 1ae:	11 24       	eor	r1, r1
 1b0:	1f 93       	push	r17
 1b2:	2f 93       	push	r18
 1b4:	3f 93       	push	r19
 1b6:	4f 93       	push	r20
 1b8:	5f 93       	push	r21
 1ba:	6f 93       	push	r22
 1bc:	7f 93       	push	r23
 1be:	8f 93       	push	r24
 1c0:	9f 93       	push	r25
 1c2:	af 93       	push	r26
 1c4:	bf 93       	push	r27
 1c6:	ef 93       	push	r30
 1c8:	ff 93       	push	r31
 1ca:	cf 93       	push	r28
 1cc:	df 93       	push	r29
 1ce:	cd b7       	in	r28, 0x3d	; 61
 1d0:	de b7       	in	r29, 0x3e	; 62
 1d2:	28 97       	sbiw	r28, 0x08	; 8
 1d4:	de bf       	out	0x3e, r29	; 62
 1d6:	cd bf       	out	0x3d, r28	; 61
 1d8:	80 91 3f 01 	lds	r24, 0x013F	; 0x80013f <value.1845>
 1dc:	4a e0       	ldi	r20, 0x0A	; 10
 1de:	be 01       	movw	r22, r28
 1e0:	6f 5f       	subi	r22, 0xFF	; 255
 1e2:	7f 4f       	sbci	r23, 0xFF	; 255
 1e4:	90 e0       	ldi	r25, 0x00	; 0
 1e6:	0e 94 62 01 	call	0x2c4	; 0x2c4 <__itoa_ncheck>
 1ea:	ce 01       	movw	r24, r28
 1ec:	01 96       	adiw	r24, 0x01	; 1
 1ee:	0e 94 61 00 	call	0xc2	; 0xc2 <uart_puts>
 1f2:	85 e1       	ldi	r24, 0x15	; 21
 1f4:	91 e0       	ldi	r25, 0x01	; 1
 1f6:	0e 94 61 00 	call	0xc2	; 0xc2 <uart_puts>
 1fa:	80 91 3f 01 	lds	r24, 0x013F	; 0x80013f <value.1845>
 1fe:	0e 94 53 00 	call	0xa6	; 0xa6 <lfsr4_fibonacci_asm>
 202:	80 93 3f 01 	sts	0x013F, r24	; 0x80013f <value.1845>
 206:	10 91 3e 01 	lds	r17, 0x013E	; 0x80013e <__data_end>
 20a:	1f 5f       	subi	r17, 0xFF	; 255
 20c:	10 93 3e 01 	sts	0x013E, r17	; 0x80013e <__data_end>
 210:	81 11       	cpse	r24, r1
 212:	16 c0       	rjmp	.+44     	; 0x240 <__vector_13+0x9a>
 214:	80 e0       	ldi	r24, 0x00	; 0
 216:	91 e0       	ldi	r25, 0x01	; 1
 218:	0e 94 61 00 	call	0xc2	; 0xc2 <uart_puts>
 21c:	4a e0       	ldi	r20, 0x0A	; 10
 21e:	be 01       	movw	r22, r28
 220:	6f 5f       	subi	r22, 0xFF	; 255
 222:	7f 4f       	sbci	r23, 0xFF	; 255
 224:	81 2f       	mov	r24, r17
 226:	90 e0       	ldi	r25, 0x00	; 0
 228:	0e 94 62 01 	call	0x2c4	; 0x2c4 <__itoa_ncheck>
 22c:	ce 01       	movw	r24, r28
 22e:	01 96       	adiw	r24, 0x01	; 1
 230:	0e 94 61 00 	call	0xc2	; 0xc2 <uart_puts>
 234:	8a e3       	ldi	r24, 0x3A	; 58
 236:	91 e0       	ldi	r25, 0x01	; 1
 238:	0e 94 61 00 	call	0xc2	; 0xc2 <uart_puts>
 23c:	10 92 3e 01 	sts	0x013E, r1	; 0x80013e <__data_end>
 240:	28 96       	adiw	r28, 0x08	; 8
 242:	0f b6       	in	r0, 0x3f	; 63
 244:	f8 94       	cli
 246:	de bf       	out	0x3e, r29	; 62
 248:	0f be       	out	0x3f, r0	; 63
 24a:	cd bf       	out	0x3d, r28	; 61
 24c:	df 91       	pop	r29
 24e:	cf 91       	pop	r28
 250:	ff 91       	pop	r31
 252:	ef 91       	pop	r30
 254:	bf 91       	pop	r27
 256:	af 91       	pop	r26
 258:	9f 91       	pop	r25
 25a:	8f 91       	pop	r24
 25c:	7f 91       	pop	r23
 25e:	6f 91       	pop	r22
 260:	5f 91       	pop	r21
 262:	4f 91       	pop	r20
 264:	3f 91       	pop	r19
 266:	2f 91       	pop	r18
 268:	1f 91       	pop	r17
 26a:	0f 90       	pop	r0
 26c:	0f be       	out	0x3f, r0	; 63
 26e:	0f 90       	pop	r0
 270:	1f 90       	pop	r1
 272:	18 95       	reti

00000274 <main>:
 274:	10 92 c4 01 	sts	0x01C4, r1	; 0x8001c4 <UART_TxHead>
 278:	10 92 c3 01 	sts	0x01C3, r1	; 0x8001c3 <UART_TxTail>
 27c:	10 92 82 01 	sts	0x0182, r1	; 0x800182 <UART_RxHead>
 280:	10 92 81 01 	sts	0x0181, r1	; 0x800181 <UART_RxTail>
 284:	10 92 c5 00 	sts	0x00C5, r1	; 0x8000c5 <__TEXT_REGION_LENGTH__+0x7e00c5>
 288:	87 e6       	ldi	r24, 0x67	; 103
 28a:	80 93 c4 00 	sts	0x00C4, r24	; 0x8000c4 <__TEXT_REGION_LENGTH__+0x7e00c4>
 28e:	88 e9       	ldi	r24, 0x98	; 152
 290:	80 93 c1 00 	sts	0x00C1, r24	; 0x8000c1 <__TEXT_REGION_LENGTH__+0x7e00c1>
 294:	86 e0       	ldi	r24, 0x06	; 6
 296:	80 93 c2 00 	sts	0x00C2, r24	; 0x8000c2 <__TEXT_REGION_LENGTH__+0x7e00c2>
 29a:	80 91 81 00 	lds	r24, 0x0081	; 0x800081 <__TEXT_REGION_LENGTH__+0x7e0081>
 29e:	8a 7f       	andi	r24, 0xFA	; 250
 2a0:	80 93 81 00 	sts	0x0081, r24	; 0x800081 <__TEXT_REGION_LENGTH__+0x7e0081>
 2a4:	80 91 81 00 	lds	r24, 0x0081	; 0x800081 <__TEXT_REGION_LENGTH__+0x7e0081>
 2a8:	82 60       	ori	r24, 0x02	; 2
 2aa:	80 93 81 00 	sts	0x0081, r24	; 0x800081 <__TEXT_REGION_LENGTH__+0x7e0081>
 2ae:	80 91 6f 00 	lds	r24, 0x006F	; 0x80006f <__TEXT_REGION_LENGTH__+0x7e006f>
 2b2:	81 60       	ori	r24, 0x01	; 1
 2b4:	80 93 6f 00 	sts	0x006F, r24	; 0x80006f <__TEXT_REGION_LENGTH__+0x7e006f>
 2b8:	78 94       	sei
 2ba:	87 e1       	ldi	r24, 0x17	; 23
 2bc:	91 e0       	ldi	r25, 0x01	; 1
 2be:	0e 94 61 00 	call	0xc2	; 0xc2 <uart_puts>
 2c2:	ff cf       	rjmp	.-2      	; 0x2c2 <main+0x4e>

000002c4 <__itoa_ncheck>:
 2c4:	bb 27       	eor	r27, r27
 2c6:	4a 30       	cpi	r20, 0x0A	; 10
 2c8:	31 f4       	brne	.+12     	; 0x2d6 <__itoa_ncheck+0x12>
 2ca:	99 23       	and	r25, r25
 2cc:	22 f4       	brpl	.+8      	; 0x2d6 <__itoa_ncheck+0x12>
 2ce:	bd e2       	ldi	r27, 0x2D	; 45
 2d0:	90 95       	com	r25
 2d2:	81 95       	neg	r24
 2d4:	9f 4f       	sbci	r25, 0xFF	; 255
 2d6:	0c 94 6e 01 	jmp	0x2dc	; 0x2dc <__utoa_common>

000002da <__utoa_ncheck>:
 2da:	bb 27       	eor	r27, r27

000002dc <__utoa_common>:
 2dc:	fb 01       	movw	r30, r22
 2de:	55 27       	eor	r21, r21
 2e0:	aa 27       	eor	r26, r26
 2e2:	88 0f       	add	r24, r24
 2e4:	99 1f       	adc	r25, r25
 2e6:	aa 1f       	adc	r26, r26
 2e8:	a4 17       	cp	r26, r20
 2ea:	10 f0       	brcs	.+4      	; 0x2f0 <__utoa_common+0x14>
 2ec:	a4 1b       	sub	r26, r20
 2ee:	83 95       	inc	r24
 2f0:	50 51       	subi	r21, 0x10	; 16
 2f2:	b9 f7       	brne	.-18     	; 0x2e2 <__utoa_common+0x6>
 2f4:	a0 5d       	subi	r26, 0xD0	; 208
 2f6:	aa 33       	cpi	r26, 0x3A	; 58
 2f8:	08 f0       	brcs	.+2      	; 0x2fc <__utoa_common+0x20>
 2fa:	a9 5d       	subi	r26, 0xD9	; 217
 2fc:	a1 93       	st	Z+, r26
 2fe:	00 97       	sbiw	r24, 0x00	; 0
 300:	79 f7       	brne	.-34     	; 0x2e0 <__utoa_common+0x4>
 302:	b1 11       	cpse	r27, r1
 304:	b1 93       	st	Z+, r27
 306:	11 92       	st	Z+, r1
 308:	cb 01       	movw	r24, r22
 30a:	0c 94 87 01 	jmp	0x30e	; 0x30e <strrev>

0000030e <strrev>:
 30e:	dc 01       	movw	r26, r24
 310:	fc 01       	movw	r30, r24
 312:	67 2f       	mov	r22, r23
 314:	71 91       	ld	r23, Z+
 316:	77 23       	and	r23, r23
 318:	e1 f7       	brne	.-8      	; 0x312 <strrev+0x4>
 31a:	32 97       	sbiw	r30, 0x02	; 2
 31c:	04 c0       	rjmp	.+8      	; 0x326 <strrev+0x18>
 31e:	7c 91       	ld	r23, X
 320:	6d 93       	st	X+, r22
 322:	70 83       	st	Z, r23
 324:	62 91       	ld	r22, -Z
 326:	ae 17       	cp	r26, r30
 328:	bf 07       	cpc	r27, r31
 32a:	c8 f3       	brcs	.-14     	; 0x31e <strrev+0x10>
 32c:	08 95       	ret

0000032e <_exit>:
 32e:	f8 94       	cli

00000330 <__stop_program>:
 330:	ff cf       	rjmp	.-2      	; 0x330 <__stop_program>
